Certificate:
    Data:
        Version: 3 (0x2)
        Serial Number: 2 (0x2)
        Signature Algorithm: ecdsa-with-SHA256
        Issuer: C=US, CN=ca
        Validity
            Not Before: Feb 15 07:26:09 2024 GMT
            Not After : Feb 14 07:26:09 2025 GMT
        Subject: C=US, CN=0.0.0.0
        Subject Public Key Info:
            Public Key Algorithm: id-ecPublicKey
                Public-Key: (256 bit)
                pub:
                    04:0d:7d:89:70:b4:b4:ce:2f:13:17:01:6c:18:cf:
                    47:29:f9:f7:53:66:89:ad:a0:41:57:89:f7:6c:d6:
                    1f:6c:fa:df:08:ab:a8:8b:6d:fd:31:7e:91:2b:b4:
                    ab:02:10:05:35:94:7f:70:c5:6f:3b:87:5a:c0:70:
                    7c:eb:ad:8f:60
                ASN1 OID: prime256v1
                NIST CURVE: P-256
        X509v3 extensions:
            X509v3 Subject Key Identifier: 
                08:0A:99:D3:77:F0:45:56:61:F2:B8:3D:E0:24:94:A0:BE:0A:2F:DA
            X509v3 Authority Key Identifier: 
                9D:62:4D:3F:71:23:76:D7:A2:39:98:EB:96:0A:2E:60:7D:37:F7:01
    Signature Algorithm: ecdsa-with-SHA256
    Signature Value:
        30:45:02:21:00:ee:3e:16:68:c6:de:bf:45:0e:38:6b:8d:03:
        34:8c:c7:48:ac:05:2d:df:14:e3:5b:fd:1a:97:5f:c1:22:cb:
        c8:02:20:67:ce:1a:7b:ca:b2:7a:4c:f1:32:e0:5d:87:49:e8:
        93:a8:dd:ed:99:83:bd:7e:1e:27:43:b0:26:d8:b6:ea:e6
-----BEGIN CERTIFICATE-----
MIIBajCCARCgAwIBAgIBAjAKBggqhkjOPQQDAjAaMQswCQYDVQQGEwJVUzELMAkG
A1UEAwwCY2EwHhcNMjQwMjE1MDcyNjA5WhcNMjUwMjE0MDcyNjA5WjAfMQswCQYD
VQQGEwJVUzEQMA4GA1UEAwwHMC4wLjAuMDBZMBMGByqGSM49AgEGCCqGSM49AwEH
A0IABA19iXC0tM4vExcBbBjPRyn591Nmia2gQVeJ92zWH2z63wirqItt/TF+kSu0
qwIQBTWUf3DFbzuHWsBwfOutj2CjQjBAMB0GA1UdDgQWBBQICpnTd/BFVmHyuD3g
JJSgvgov2jAfBgNVHSMEGDAWgBSdYk0/cSN216I5mOuWCi5gfTf3ATAKBggqhkjO
PQQDAgNIADBFAiEA7j4WaMbev0UOOGuNAzSMx0isBS3fFONb/RqXX8Eiy8gCIGfO
GnvKsnpM8TLgXYdJ6JOo3e2Zg71+HidDsCbYturm
-----END CERTIFICATE-----
