Certificate:
    Data:
        Version: 3 (0x2)
        Serial Number: 5 (0x5)
        Signature Algorithm: ecdsa-with-SHA256
        Issuer: C=US, CN=ca
        Validity
            Not Before: Feb 15 07:26:25 2024 GMT
            Not After : Feb 14 07:26:25 2025 GMT
        Subject: C=US, CN=dev2
        Subject Public Key Info:
            Public Key Algorithm: id-ecPublicKey
                Public-Key: (256 bit)
                pub:
                    04:06:cb:c6:12:a6:ba:0c:49:f2:fa:9b:24:ba:08:
                    55:de:36:b6:d9:b0:26:52:12:fa:94:32:2d:a6:32:
                    44:36:06:b8:de:e4:be:b4:33:3d:33:c3:96:07:b3:
                    e6:9a:95:ff:86:d9:ca:d5:19:d4:dd:2d:5f:fc:79:
                    5e:18:6f:0c:5d
                ASN1 OID: prime256v1
                NIST CURVE: P-256
        X509v3 extensions:
            X509v3 Subject Key Identifier: 
                54:33:7D:19:10:8A:1B:7A:01:67:EE:88:E4:9C:4E:3B:5C:B2:93:61
            X509v3 Authority Key Identifier: 
                9D:62:4D:3F:71:23:76:D7:A2:39:98:EB:96:0A:2E:60:7D:37:F7:01
    Signature Algorithm: ecdsa-with-SHA256
    Signature Value:
        30:45:02:20:4a:d5:71:cf:c7:9e:c7:f9:fe:66:0e:c4:71:93:
        f7:49:3a:2f:14:82:15:82:62:a1:4f:14:25:45:c2:ce:a4:6b:
        02:21:00:80:5d:ac:a5:33:e6:d5:a2:23:f9:4e:b5:5c:36:21:
        36:d0:89:c5:ea:78:69:92:a7:ed:e1:8f:07:87:c4:a3:5d
-----BEGIN CERTIFICATE-----
MIIBZzCCAQ2gAwIBAgIBBTAKBggqhkjOPQQDAjAaMQswCQYDVQQGEwJVUzELMAkG
A1UEAwwCY2EwHhcNMjQwMjE1MDcyNjI1WhcNMjUwMjE0MDcyNjI1WjAcMQswCQYD
VQQGEwJVUzENMAsGA1UEAwwEZGV2MjBZMBMGByqGSM49AgEGCCqGSM49AwEHA0IA
BAbLxhKmugxJ8vqbJLoIVd42ttmwJlIS+pQyLaYyRDYGuN7kvrQzPTPDlgez5pqV
/4bZytUZ1N0tX/x5XhhvDF2jQjBAMB0GA1UdDgQWBBRUM30ZEIobegFn7ojknE47
XLKTYTAfBgNVHSMEGDAWgBSdYk0/cSN216I5mOuWCi5gfTf3ATAKBggqhkjOPQQD
AgNIADBFAiBK1XHPx57H+f5mDsRxk/dJOi8UghWCYqFPFCVFws6kawIhAIBdrKUz
5tWiI/lOtVw2ITbQicXqeGmSp+3hjweHxKNd
-----END CERTIFICATE-----
