Certificate:
    Data:
        Version: 3 (0x2)
        Serial Number: 6 (0x6)
        Signature Algorithm: ecdsa-with-SHA256
        Issuer: C=US, CN=ca
        Validity
            Not Before: Feb 15 07:26:31 2024 GMT
            Not After : Feb 14 07:26:31 2025 GMT
        Subject: C=US, CN=dev3
        Subject Public Key Info:
            Public Key Algorithm: id-ecPublicKey
                Public-Key: (256 bit)
                pub:
                    04:9c:db:bd:0e:f9:f7:23:7d:80:4b:92:b1:7b:98:
                    68:db:d7:9e:7d:87:c9:49:77:33:0f:a1:f9:a9:ea:
                    89:3f:c6:21:fd:ee:f8:9f:d3:0e:5e:d3:0e:27:b2:
                    45:a8:e4:c1:ff:1a:d4:15:89:b6:0f:49:e1:94:47:
                    3c:31:2a:a9:e3
                ASN1 OID: prime256v1
                NIST CURVE: P-256
        X509v3 extensions:
            X509v3 Subject Key Identifier: 
                2D:C0:37:F8:38:FC:2B:CB:54:A5:7F:90:F6:8F:04:A8:8E:E8:AF:F8
            X509v3 Authority Key Identifier: 
                9D:62:4D:3F:71:23:76:D7:A2:39:98:EB:96:0A:2E:60:7D:37:F7:01
    Signature Algorithm: ecdsa-with-SHA256
    Signature Value:
        30:46:02:21:00:f8:3f:56:63:42:7d:cb:3e:79:37:64:5f:63:
        13:a1:fd:f0:a0:0d:64:e6:db:4a:fe:73:20:60:31:ca:67:64:
        ec:02:21:00:e6:96:77:d9:58:1c:a6:c0:d3:af:99:52:7c:72:
        ee:ba:7a:de:ac:f7:be:ec:0e:f7:fd:cf:cd:18:ca:8a:16:9c
-----BEGIN CERTIFICATE-----
MIIBaDCCAQ2gAwIBAgIBBjAKBggqhkjOPQQDAjAaMQswCQYDVQQGEwJVUzELMAkG
A1UEAwwCY2EwHhcNMjQwMjE1MDcyNjMxWhcNMjUwMjE0MDcyNjMxWjAcMQswCQYD
VQQGEwJVUzENMAsGA1UEAwwEZGV2MzBZMBMGByqGSM49AgEGCCqGSM49AwEHA0IA
BJzbvQ759yN9gEuSsXuYaNvXnn2HyUl3Mw+h+anqiT/GIf3u+J/TDl7TDieyRajk
wf8a1BWJtg9J4ZRHPDEqqeOjQjBAMB0GA1UdDgQWBBQtwDf4OPwry1Slf5D2jwSo
juiv+DAfBgNVHSMEGDAWgBSdYk0/cSN216I5mOuWCi5gfTf3ATAKBggqhkjOPQQD
AgNJADBGAiEA+D9WY0J9yz55N2RfYxOh/fCgDWTm20r+cyBgMcpnZOwCIQDmlnfZ
WBymwNOvmVJ8cu66et6s977sDvf9z80YyooWnA==
-----END CERTIFICATE-----
