Certificate:
    Data:
        Version: 3 (0x2)
        Serial Number: 8 (0x8)
        Signature Algorithm: ecdsa-with-SHA256
        Issuer: C=US, CN=ca
        Validity
            Not Before: Feb 15 07:26:43 2024 GMT
            Not After : Feb 14 07:26:43 2025 GMT
        Subject: C=US, CN=dev5
        Subject Public Key Info:
            Public Key Algorithm: id-ecPublicKey
                Public-Key: (256 bit)
                pub:
                    04:0e:7a:cc:54:fa:42:b0:e3:cd:2f:ef:a6:88:ca:
                    52:4c:46:2c:2c:eb:c5:e4:ba:b2:65:60:e0:71:19:
                    a0:41:2c:09:04:63:9e:01:3f:11:21:24:44:16:f0:
                    f4:6f:e1:ac:57:bf:f2:60:ee:0c:7d:ed:3b:9b:df:
                    df:bd:20:cf:f5
                ASN1 OID: prime256v1
                NIST CURVE: P-256
        X509v3 extensions:
            X509v3 Subject Key Identifier: 
                B5:E1:33:8C:62:9B:F7:45:81:AB:8E:74:31:B6:A9:20:8E:01:97:AE
            X509v3 Authority Key Identifier: 
                9D:62:4D:3F:71:23:76:D7:A2:39:98:EB:96:0A:2E:60:7D:37:F7:01
    Signature Algorithm: ecdsa-with-SHA256
    Signature Value:
        30:46:02:21:00:a4:81:56:d7:44:cf:f8:3b:1c:e2:3d:aa:48:
        f9:32:ae:6a:32:91:6e:13:b8:a2:4a:e0:1f:a1:3b:e4:2a:45:
        7e:02:21:00:ab:3e:33:27:79:4d:80:a4:31:fb:d6:30:72:57:
        cc:77:ac:32:b5:c3:e0:b2:f9:6c:d8:a8:e3:9f:98:f6:48:39
-----BEGIN CERTIFICATE-----
MIIBaDCCAQ2gAwIBAgIBCDAKBggqhkjOPQQDAjAaMQswCQYDVQQGEwJVUzELMAkG
A1UEAwwCY2EwHhcNMjQwMjE1MDcyNjQzWhcNMjUwMjE0MDcyNjQzWjAcMQswCQYD
VQQGEwJVUzENMAsGA1UEAwwEZGV2NTBZMBMGByqGSM49AgEGCCqGSM49AwEHA0IA
BA56zFT6QrDjzS/vpojKUkxGLCzrxeS6smVg4HEZoEEsCQRjngE/ESEkRBbw9G/h
rFe/8mDuDH3tO5vf370gz/WjQjBAMB0GA1UdDgQWBBS14TOMYpv3RYGrjnQxtqkg
jgGXrjAfBgNVHSMEGDAWgBSdYk0/cSN216I5mOuWCi5gfTf3ATAKBggqhkjOPQQD
AgNJADBGAiEApIFW10TP+Dsc4j2qSPkyrmoykW4TuKJK4B+hO+QqRX4CIQCrPjMn
eU2ApDH71jByV8x3rDK1w+Cy+WzYqOOfmPZIOQ==
-----END CERTIFICATE-----
