Certificate:
    Data:
        Version: 3 (0x2)
        Serial Number: 3 (0x3)
        Signature Algorithm: ecdsa-with-SHA256
        Issuer: C=US, CN=ca
        Validity
            Not Before: Feb 15 07:26:13 2024 GMT
            Not After : Feb 14 07:26:13 2025 GMT
        Subject: C=US, CN=admin
        Subject Public Key Info:
            Public Key Algorithm: id-ecPublicKey
                Public-Key: (256 bit)
                pub:
                    04:c2:5b:6e:2b:5a:f8:e7:c9:33:17:c0:f1:d7:94:
                    d9:94:91:ad:6c:65:02:a0:02:46:1d:c2:6d:e8:ff:
                    df:d6:72:2d:2c:34:32:69:c5:80:0b:ea:cd:49:af:
                    39:e9:d5:98:85:c1:92:0e:a8:cd:c8:90:38:d4:ab:
                    9e:ac:82:49:23
                ASN1 OID: prime256v1
                NIST CURVE: P-256
        X509v3 extensions:
            X509v3 Subject Key Identifier: 
                C7:7C:66:FD:B4:B5:BB:49:89:5C:C6:E8:7C:05:DC:93:BC:06:9B:62
            X509v3 Authority Key Identifier: 
                9D:62:4D:3F:71:23:76:D7:A2:39:98:EB:96:0A:2E:60:7D:37:F7:01
    Signature Algorithm: ecdsa-with-SHA256
    Signature Value:
        30:44:02:20:03:5a:2a:c3:4d:a2:09:95:a7:ae:42:1a:44:be:
        b7:09:19:77:0e:dc:7d:82:cc:73:ef:79:fd:9f:f5:d3:48:11:
        02:20:29:fe:0b:67:48:64:7d:0b:ce:2c:05:e1:e0:1f:16:79:
        82:73:78:fb:ba:bf:98:37:09:7f:c3:2d:32:90:e1:73
-----BEGIN CERTIFICATE-----
MIIBZzCCAQ6gAwIBAgIBAzAKBggqhkjOPQQDAjAaMQswCQYDVQQGEwJVUzELMAkG
A1UEAwwCY2EwHhcNMjQwMjE1MDcyNjEzWhcNMjUwMjE0MDcyNjEzWjAdMQswCQYD
VQQGEwJVUzEOMAwGA1UEAwwFYWRtaW4wWTATBgcqhkjOPQIBBggqhkjOPQMBBwNC
AATCW24rWvjnyTMXwPHXlNmUka1sZQKgAkYdwm3o/9/Wci0sNDJpxYAL6s1Jrznp
1ZiFwZIOqM3IkDjUq56sgkkjo0IwQDAdBgNVHQ4EFgQUx3xm/bS1u0mJXMbofAXc
k7wGm2IwHwYDVR0jBBgwFoAUnWJNP3EjdteiOZjrlgouYH039wEwCgYIKoZIzj0E
AwIDRwAwRAIgA1oqw02iCZWnrkIaRL63CRl3Dtx9gsxz73n9n/XTSBECICn+C2dI
ZH0LziwF4eAfFnmCc3j7ur+YNwl/wy0ykOFz
-----END CERTIFICATE-----
